; Function Attrs: mustprogress nofree nosync nounwind willreturn memory(write, inaccessiblemem: none) uwtable
define noundef i32 @_ZN3zmq11ws_engine_t26produce_no_msg_after_closeEPNS_5msg_tE(ptr nocapture noundef nonnull writeonly align 8 dereferenceable(25696) %this, ptr nocapture readnone %msg_) #16 align 2 {
entry:
  %_next_msg = getelementptr inbounds i8, ptr %this, i64 1416
  store i64 ptrtoint (ptr @_ZN3zmq11ws_engine_t28close_connection_after_closeEPNS_5msg_tE to i64), ptr %_next_msg, align 8
  %_next_msg.repack1 = getelementptr inbounds i8, ptr %this, i64 1424
  store i64 0, ptr %_next_msg.repack1, align 8
  %call = tail call ptr @__errno_location() #22
  store i32 11, ptr %call, align 4
  ret i32 -1
}